target datalayout = "e-m:e-p270:32:32-p271:32:32-p272:64:64-i64:64-i128:128-f80:128-n8:16:32:64-S128"
target triple = "x86_64-pc-linux-gnu"

; Function Attrs: alwaysinline nounwind uwtable
define internal void @do_scaled_bilin_c(ptr noundef %0, i64 noundef %1, ptr noundef %2, i64 noundef %3, i32 noundef %4, i32 noundef %5, i32 noundef %6, i32 noundef %7, i32 noundef %8, i32 noundef %9, i32 noundef %10) #6 {
  %12 = alloca ptr, align 8
  %13 = alloca i64, align 8
  %14 = alloca ptr, align 8
  %15 = alloca i64, align 8
  %16 = alloca i32, align 4
  %17 = alloca i32, align 4
  %18 = alloca i32, align 4
  %19 = alloca i32, align 4
  %20 = alloca i32, align 4
  %21 = alloca i32, align 4
  %22 = alloca i32, align 4
  %23 = alloca [8256 x i8], align 16
  %24 = alloca ptr, align 8
  %25 = alloca i32, align 4
  %26 = alloca ptr, align 8
  %27 = alloca ptr, align 8
  %28 = alloca i32, align 4
  %29 = alloca i32, align 4
  %30 = alloca i32, align 4
  %31 = alloca i32, align 4
  store ptr %0, ptr %12, align 8, !tbaa !10
  store i64 %1, ptr %13, align 8, !tbaa !12
  store ptr %2, ptr %14, align 8, !tbaa !10
  store i64 %3, ptr %15, align 8, !tbaa !12
  store i32 %4, ptr %16, align 4, !tbaa !15
  store i32 %5, ptr %17, align 4, !tbaa !15
  store i32 %6, ptr %18, align 4, !tbaa !15
  store i32 %7, ptr %19, align 4, !tbaa !15
  store i32 %8, ptr %20, align 4, !tbaa !15
  store i32 %9, ptr %21, align 4, !tbaa !15
  store i32 %10, ptr %22, align 4, !tbaa !15
  call void @llvm.lifetime.start.p0(i64 8256, ptr %23) #10
  call void @llvm.lifetime.start.p0(i64 8, ptr %24) #10
  %32 = getelementptr inbounds [8256 x i8], ptr %23, i64 0, i64 0
  store ptr %32, ptr %24, align 8, !tbaa !10
  call void @llvm.lifetime.start.p0(i64 4, ptr %25) #10
  %33 = load i32, ptr %17, align 4, !tbaa !15
  %34 = sub nsw i32 %33, 1
  %35 = load i32, ptr %21, align 4, !tbaa !15
  %36 = mul nsw i32 %34, %35
  %37 = load i32, ptr %19, align 4, !tbaa !15
  %38 = add nsw i32 %36, %37
  %39 = ashr i32 %38, 4
  %40 = add nsw i32 %39, 2
  store i32 %40, ptr %25, align 4, !tbaa !15
  call void @llvm.lifetime.start.p0(i64 8, ptr %26) #10
  %41 = load ptr, ptr %12, align 8, !tbaa !10
  store ptr %41, ptr %26, align 8, !tbaa !10
  call void @llvm.lifetime.start.p0(i64 8, ptr %27) #10
  %42 = load ptr, ptr %14, align 8, !tbaa !10
  store ptr %42, ptr %27, align 8, !tbaa !10
  %43 = load i64, ptr %13, align 8, !tbaa !12
  %44 = udiv i64 %43, 1
  store i64 %44, ptr %13, align 8, !tbaa !12
  %45 = load i64, ptr %15, align 8, !tbaa !12
  %46 = udiv i64 %45, 1
  store i64 %46, ptr %15, align 8, !tbaa !12
  br label %47

47:                                               ; preds = %102, %11
  call void @llvm.lifetime.start.p0(i64 4, ptr %28) #10
  call void @llvm.lifetime.start.p0(i64 4, ptr %29) #10
  %48 = load i32, ptr %18, align 4, !tbaa !15
  store i32 %48, ptr %29, align 4, !tbaa !15
  call void @llvm.lifetime.start.p0(i64 4, ptr %30) #10
  store i32 0, ptr %30, align 4, !tbaa !15
  store i32 0, ptr %28, align 4, !tbaa !15
  br label %49

49:                                               ; preds = %93, %47
  %50 = load i32, ptr %28, align 4, !tbaa !15
  %51 = load i32, ptr %16, align 4, !tbaa !15
  %52 = icmp slt i32 %50, %51
  br i1 %52, label %53, label %96

53:                                               ; preds = %49
  %54 = load ptr, ptr %27, align 8, !tbaa !10
  %55 = load i32, ptr %30, align 4, !tbaa !15
  %56 = sext i32 %55 to i64
  %57 = getelementptr inbounds i8, ptr %54, i64 %56
  %58 = load i8, ptr %57, align 1, !tbaa !14
  %59 = zext i8 %58 to i32
  %60 = load i32, ptr %29, align 4, !tbaa !15
  %61 = load ptr, ptr %27, align 8, !tbaa !10
  %62 = load i32, ptr %30, align 4, !tbaa !15
  %63 = add nsw i32 %62, 1
  %64 = sext i32 %63 to i64
  %65 = getelementptr inbounds i8, ptr %61, i64 %64
  %66 = load i8, ptr %65, align 1, !tbaa !14
  %67 = zext i8 %66 to i32
  %68 = load ptr, ptr %27, align 8, !tbaa !10
  %69 = load i32, ptr %30, align 4, !tbaa !15
  %70 = sext i32 %69 to i64
  %71 = getelementptr inbounds i8, ptr %68, i64 %70
  %72 = load i8, ptr %71, align 1, !tbaa !14
  %73 = zext i8 %72 to i32
  %74 = sub nsw i32 %67, %73
  %75 = mul nsw i32 %60, %74
  %76 = add nsw i32 %75, 8
  %77 = ashr i32 %76, 4
  %78 = add nsw i32 %59, %77
  %79 = trunc i32 %78 to i8
  %80 = load ptr, ptr %24, align 8, !tbaa !10
  %81 = load i32, ptr %28, align 4, !tbaa !15
  %82 = sext i32 %81 to i64
  %83 = getelementptr inbounds i8, ptr %80, i64 %82
  store i8 %79, ptr %83, align 1, !tbaa !14
  %84 = load i32, ptr %20, align 4, !tbaa !15
  %85 = load i32, ptr %29, align 4, !tbaa !15
  %86 = add nsw i32 %85, %84
  store i32 %86, ptr %29, align 4, !tbaa !15
  %87 = load i32, ptr %29, align 4, !tbaa !15
  %88 = ashr i32 %87, 4
  %89 = load i32, ptr %30, align 4, !tbaa !15
  %90 = add nsw i32 %89, %88
  store i32 %90, ptr %30, align 4, !tbaa !15
  %91 = load i32, ptr %29, align 4, !tbaa !15
  %92 = and i32 %91, 15
  store i32 %92, ptr %29, align 4, !tbaa !15
  br label %93

93:                                               ; preds = %53
  %94 = load i32, ptr %28, align 4, !tbaa !15
  %95 = add nsw i32 %94, 1
  store i32 %95, ptr %28, align 4, !tbaa !15
  br label %49, !llvm.loop !162

96:                                               ; preds = %49
  %97 = load ptr, ptr %24, align 8, !tbaa !10
  %98 = getelementptr inbounds i8, ptr %97, i64 64
  store ptr %98, ptr %24, align 8, !tbaa !10
  %99 = load i64, ptr %15, align 8, !tbaa !12
  %100 = load ptr, ptr %27, align 8, !tbaa !10
  %101 = getelementptr inbounds i8, ptr %100, i64 %99
  store ptr %101, ptr %27, align 8, !tbaa !10
  call void @llvm.lifetime.end.p0(i64 4, ptr %30) #10
  call void @llvm.lifetime.end.p0(i64 4, ptr %29) #10
  call void @llvm.lifetime.end.p0(i64 4, ptr %28) #10
  br label %102

102:                                              ; preds = %96
  %103 = load i32, ptr %25, align 4, !tbaa !15
  %104 = add nsw i32 %103, -1
  store i32 %104, ptr %25, align 4, !tbaa !15
  %105 = icmp ne i32 %104, 0
  br i1 %105, label %47, label %106, !llvm.loop !163

106:                                              ; preds = %102
  %107 = getelementptr inbounds [8256 x i8], ptr %23, i64 0, i64 0
  store ptr %107, ptr %24, align 8, !tbaa !10
  br label %108

108:                                              ; preds = %206, %106
  call void @llvm.lifetime.start.p0(i64 4, ptr %31) #10
  store i32 0, ptr %31, align 4, !tbaa !15
  br label %109

109:                                              ; preds = %188, %108
  %110 = load i32, ptr %31, align 4, !tbaa !15
  %111 = load i32, ptr %16, align 4, !tbaa !15
  %112 = icmp slt i32 %110, %111
  br i1 %112, label %113, label %191

113:                                              ; preds = %109
  %114 = load i32, ptr %22, align 4, !tbaa !15
  %115 = icmp ne i32 %114, 0
  br i1 %115, label %116, label %156

116:                                              ; preds = %113
  %117 = load ptr, ptr %26, align 8, !tbaa !10
  %118 = load i32, ptr %31, align 4, !tbaa !15
  %119 = sext i32 %118 to i64
  %120 = getelementptr inbounds i8, ptr %117, i64 %119
  %121 = load i8, ptr %120, align 1, !tbaa !14
  %122 = zext i8 %121 to i32
  %123 = load ptr, ptr %24, align 8, !tbaa !10
  %124 = load i32, ptr %31, align 4, !tbaa !15
  %125 = sext i32 %124 to i64
  %126 = getelementptr inbounds i8, ptr %123, i64 %125
  %127 = load i8, ptr %126, align 1, !tbaa !14
  %128 = zext i8 %127 to i32
  %129 = load i32, ptr %19, align 4, !tbaa !15
  %130 = load ptr, ptr %24, align 8, !tbaa !10
  %131 = load i32, ptr %31, align 4, !tbaa !15
  %132 = add nsw i32 %131, 64
  %133 = sext i32 %132 to i64
  %134 = getelementptr inbounds i8, ptr %130, i64 %133
  %135 = load i8, ptr %134, align 1, !tbaa !14
  %136 = zext i8 %135 to i32
  %137 = load ptr, ptr %24, align 8, !tbaa !10
  %138 = load i32, ptr %31, align 4, !tbaa !15
  %139 = sext i32 %138 to i64
  %140 = getelementptr inbounds i8, ptr %137, i64 %139
  %141 = load i8, ptr %140, align 1, !tbaa !14
  %142 = zext i8 %141 to i32
  %143 = sub nsw i32 %136, %142
  %144 = mul nsw i32 %129, %143
  %145 = add nsw i32 %144, 8
  %146 = ashr i32 %145, 4
  %147 = add nsw i32 %128, %146
  %148 = add nsw i32 %122, %147
  %149 = add nsw i32 %148, 1
  %150 = ashr i32 %149, 1
  %151 = trunc i32 %150 to i8
  %152 = load ptr, ptr %26, align 8, !tbaa !10
  %153 = load i32, ptr %31, align 4, !tbaa !15
  %154 = sext i32 %153 to i64
  %155 = getelementptr inbounds i8, ptr %152, i64 %154
  store i8 %151, ptr %155, align 1, !tbaa !14
  br label %187

156:                                              ; preds = %113
  %157 = load ptr, ptr %24, align 8, !tbaa !10
  %158 = load i32, ptr %31, align 4, !tbaa !15
  %159 = sext i32 %158 to i64
  %160 = getelementptr inbounds i8, ptr %157, i64 %159
  %161 = load i8, ptr %160, align 1, !tbaa !14
  %162 = zext i8 %161 to i32
  %163 = load i32, ptr %19, align 4, !tbaa !15
  %164 = load ptr, ptr %24, align 8, !tbaa !10
  %165 = load i32, ptr %31, align 4, !tbaa !15
  %166 = add nsw i32 %165, 64
  %167 = sext i32 %166 to i64
  %168 = getelementptr inbounds i8, ptr %164, i64 %167
  %169 = load i8, ptr %168, align 1, !tbaa !14
  %170 = zext i8 %169 to i32
  %171 = load ptr, ptr %24, align 8, !tbaa !10
  %172 = load i32, ptr %31, align 4, !tbaa !15
  %173 = sext i32 %172 to i64
  %174 = getelementptr inbounds i8, ptr %171, i64 %173
  %175 = load i8, ptr %174, align 1, !tbaa !14
  %176 = zext i8 %175 to i32
  %177 = sub nsw i32 %170, %176
  %178 = mul nsw i32 %163, %177
  %179 = add nsw i32 %178, 8
  %180 = ashr i32 %179, 4
  %181 = add nsw i32 %162, %180
  %182 = trunc i32 %181 to i8
  %183 = load ptr, ptr %26, align 8, !tbaa !10
  %184 = load i32, ptr %31, align 4, !tbaa !15
  %185 = sext i32 %184 to i64
  %186 = getelementptr inbounds i8, ptr %183, i64 %185
  store i8 %182, ptr %186, align 1, !tbaa !14
  br label %187

187:                                              ; preds = %156, %116
  br label %188

188:                                              ; preds = %187
  %189 = load i32, ptr %31, align 4, !tbaa !15
  %190 = add nsw i32 %189, 1
  store i32 %190, ptr %31, align 4, !tbaa !15
  br label %109, !llvm.loop !164

191:                                              ; preds = %109
  %192 = load i32, ptr %21, align 4, !tbaa !15
  %193 = load i32, ptr %19, align 4, !tbaa !15
  %194 = add nsw i32 %193, %192
  store i32 %194, ptr %19, align 4, !tbaa !15
  %195 = load i32, ptr %19, align 4, !tbaa !15
  %196 = ashr i32 %195, 4
  %197 = mul nsw i32 %196, 64
  %198 = load ptr, ptr %24, align 8, !tbaa !10
  %199 = sext i32 %197 to i64
  %200 = getelementptr inbounds i8, ptr %198, i64 %199
  store ptr %200, ptr %24, align 8, !tbaa !10
  %201 = load i32, ptr %19, align 4, !tbaa !15
  %202 = and i32 %201, 15
  store i32 %202, ptr %19, align 4, !tbaa !15
  %203 = load i64, ptr %13, align 8, !tbaa !12
  %204 = load ptr, ptr %26, align 8, !tbaa !10
  %205 = getelementptr inbounds i8, ptr %204, i64 %203
  store ptr %205, ptr %26, align 8, !tbaa !10
  call void @llvm.lifetime.end.p0(i64 4, ptr %31) #10
  br label %206

206:                                              ; preds = %191
  %207 = load i32, ptr %17, align 4, !tbaa !15
  %208 = add nsw i32 %207, -1
  store i32 %208, ptr %17, align 4, !tbaa !15
  %209 = icmp ne i32 %208, 0
  br i1 %209, label %108, label %210, !llvm.loop !165

210:                                              ; preds = %206
  call void @llvm.lifetime.end.p0(i64 8, ptr %27) #10
  call void @llvm.lifetime.end.p0(i64 8, ptr %26) #10
  call void @llvm.lifetime.end.p0(i64 4, ptr %25) #10
  call void @llvm.lifetime.end.p0(i64 8, ptr %24) #10
  call void @llvm.lifetime.end.p0(i64 8256, ptr %23) #10
  ret void
}

; Function Attrs: noinline nounwind uwtable
define internal void @avg_scaled_bilin_c(ptr noundef %0, i64 noundef %1, ptr noundef %2, i64 noundef %3, i32 noundef %4, i32 noundef %5, i32 noundef %6, i32 noundef %7, i32 noundef %8, i32 noundef %9) #8 {
  %11 = alloca ptr, align 8
  %12 = alloca i64, align 8
  %13 = alloca ptr, align 8
  %14 = alloca i64, align 8
  %15 = alloca i32, align 4
  %16 = alloca i32, align 4
  %17 = alloca i32, align 4
  %18 = alloca i32, align 4
  %19 = alloca i32, align 4
  %20 = alloca i32, align 4
  store ptr %0, ptr %11, align 8, !tbaa !10
  store i64 %1, ptr %12, align 8, !tbaa !12
  store ptr %2, ptr %13, align 8, !tbaa !10
  store i64 %3, ptr %14, align 8, !tbaa !12
  store i32 %4, ptr %15, align 4, !tbaa !15
  store i32 %5, ptr %16, align 4, !tbaa !15
  store i32 %6, ptr %17, align 4, !tbaa !15
  store i32 %7, ptr %18, align 4, !tbaa !15
  store i32 %8, ptr %19, align 4, !tbaa !15
  store i32 %9, ptr %20, align 4, !tbaa !15
  %21 = load ptr, ptr %11, align 8, !tbaa !10
  %22 = load i64, ptr %12, align 8, !tbaa !12
  %23 = load ptr, ptr %13, align 8, !tbaa !10
  %24 = load i64, ptr %14, align 8, !tbaa !12
  %25 = load i32, ptr %15, align 4, !tbaa !15
  %26 = load i32, ptr %16, align 4, !tbaa !15
  %27 = load i32, ptr %17, align 4, !tbaa !15
  %28 = load i32, ptr %18, align 4, !tbaa !15
  %29 = load i32, ptr %19, align 4, !tbaa !15
  %30 = load i32, ptr %20, align 4, !tbaa !15
  call void @do_scaled_bilin_c(ptr noundef %21, i64 noundef %22, ptr noundef %23, i64 noundef %24, i32 noundef %25, i32 noundef %26, i32 noundef %27, i32 noundef %28, i32 noundef %29, i32 noundef %30, i32 noundef 1)
  ret void
}