; Function Attrs: nofree noinline norecurse nosync nounwind memory(argmem: readwrite) uwtable
define internal fastcc void @avg_scaled_bilin_c(ptr noundef captures(none) %0, i64 noundef %1, ptr noundef readonly captures(none) %2, i64 noundef %3, i32 noundef range(i32 4, 65) %4, i32 noundef %5, i32 noundef %6, i32 noundef %7, i32 noundef %8, i32 noundef %9) unnamed_addr #9 {
  %11 = alloca [8256 x i8], align 16
  call void @llvm.lifetime.start.p0(i64 8256, ptr nonnull %11) #13
  %12 = add nsw i32 %5, -1
  %13 = mul nsw i32 %9, %12
  %14 = add nsw i32 %13, %7
  %15 = ashr i32 %14, 4
  %16 = add nsw i32 %15, 2
  %wide.trip.count = zext nneg i32 %4 to i64
  br label %17

17:                                               ; preds = %37, %10
  %.066.i = phi ptr [ %11, %10 ], [ %38, %37 ]
  %.065.i = phi i32 [ %16, %10 ], [ %40, %37 ]
  %.063.i = phi ptr [ %2, %10 ], [ %39, %37 ]
  br label %18

18:                                               ; preds = %17, %18
  %indvars.iv = phi i64 [ 0, %17 ], [ %indvars.iv.next, %18 ]
  %.060.i11 = phi i32 [ 0, %17 ], [ %35, %18 ]
  %.061.i10 = phi i32 [ %6, %17 ], [ %36, %18 ]
  %19 = sext i32 %.060.i11 to i64
  %20 = getelementptr inbounds i8, ptr %.063.i, i64 %19
  %21 = load i8, ptr %20, align 1, !tbaa !8
  %22 = zext i8 %21 to i32
  %23 = getelementptr i8, ptr %20, i64 1
  %24 = load i8, ptr %23, align 1, !tbaa !8
  %25 = zext i8 %24 to i32
  %26 = sub nsw i32 %25, %22
  %27 = mul nsw i32 %26, %.061.i10
  %28 = add nsw i32 %27, 8
  %29 = lshr i32 %28, 4
  %30 = trunc i32 %29 to i8
  %31 = add i8 %21, %30
  %32 = getelementptr inbounds nuw i8, ptr %.066.i, i64 %indvars.iv
  store i8 %31, ptr %32, align 1, !tbaa !8
  %33 = add nsw i32 %.061.i10, %8
  %34 = ashr i32 %33, 4
  %35 = add nsw i32 %34, %.060.i11
  %36 = and i32 %33, 15
  %indvars.iv.next = add nuw nsw i64 %indvars.iv, 1
  %exitcond.not = icmp eq i64 %indvars.iv.next, %wide.trip.count
  br i1 %exitcond.not, label %37, label %18, !llvm.loop !197

37:                                               ; preds = %18
  %38 = getelementptr inbounds nuw i8, ptr %.066.i, i64 64
  %39 = getelementptr inbounds i8, ptr %.063.i, i64 %3
  %40 = add nsw i32 %.065.i, -1
  %.not.i = icmp eq i32 %40, 0
  br i1 %.not.i, label %.preheader, label %17, !llvm.loop !198

.preheader:                                       ; preds = %37, %60
  %.068.i = phi i32 [ %66, %60 ], [ %7, %37 ]
  %.067.i = phi i32 [ %68, %60 ], [ %5, %37 ]
  %.1.i = phi ptr [ %65, %60 ], [ %11, %37 ]
  %.064.i = phi ptr [ %67, %60 ], [ %0, %37 ]
  br label %41

41:                                               ; preds = %.preheader, %41
  %indvars.iv14 = phi i64 [ 0, %.preheader ], [ %indvars.iv.next15, %41 ]
  %42 = getelementptr inbounds nuw i8, ptr %.064.i, i64 %indvars.iv14
  %43 = load i8, ptr %42, align 1, !tbaa !8
  %44 = zext i8 %43 to i32
  %45 = getelementptr inbounds nuw i8, ptr %.1.i, i64 %indvars.iv14
  %46 = load i8, ptr %45, align 1, !tbaa !8
  %47 = zext i8 %46 to i32
  %48 = getelementptr inbounds nuw i8, ptr %45, i64 64
  %49 = load i8, ptr %48, align 1, !tbaa !8
  %50 = zext i8 %49 to i32
  %51 = sub nsw i32 %50, %47
  %52 = mul nsw i32 %51, %.068.i
  %53 = add nsw i32 %52, 8
  %54 = lshr i32 %53, 4
  %55 = add nuw nsw i32 %44, 1
  %56 = add nuw nsw i32 %55, %47
  %57 = add nuw nsw i32 %56, %54
  %58 = lshr i32 %57, 1
  %59 = trunc i32 %58 to i8
  store i8 %59, ptr %42, align 1, !tbaa !8
  %indvars.iv.next15 = add nuw nsw i64 %indvars.iv14, 1
  %exitcond18.not = icmp eq i64 %indvars.iv.next15, %wide.trip.count
  br i1 %exitcond18.not, label %60, label %41, !llvm.loop !199

60:                                               ; preds = %41
  %61 = add nsw i32 %.068.i, %9
  %62 = shl nsw i32 %61, 2
  %63 = and i32 %62, -64
  %64 = sext i32 %63 to i64
  %65 = getelementptr inbounds i8, ptr %.1.i, i64 %64
  %66 = and i32 %61, 15
  %67 = getelementptr inbounds i8, ptr %.064.i, i64 %1
  %68 = add nsw i32 %.067.i, -1
  %.not72.i = icmp eq i32 %68, 0
  br i1 %.not72.i, label %do_scaled_bilin_c.exit, label %.preheader, !llvm.loop !200

do_scaled_bilin_c.exit:                           ; preds = %60
  call void @llvm.lifetime.end.p0(i64 8256, ptr nonnull %11) #13
  ret void
}